; Function Attrs: nounwind uwtable
define internal ptr @lxb_html_tokenizer_state_cdata_section_end(ptr noundef %0, ptr noundef readonly %1, ptr noundef readnone %2) #1 {
  %4 = load i8, ptr %1, align 1
  switch i8 %4, label %61 [
    i8 93, label %5
    i8 62, label %31
  ]

5:                                                ; preds = %3
  %6 = getelementptr inbounds i8, ptr %0, i64 136
  %7 = load ptr, ptr %6, align 8
  %8 = getelementptr inbounds i8, ptr %7, i64 1
  %9 = getelementptr inbounds i8, ptr %0, i64 144
  %10 = load ptr, ptr %9, align 8
  %11 = icmp ugt ptr %8, %10
  br i1 %11, label %12, label %26

12:                                               ; preds = %5
  %13 = getelementptr inbounds i8, ptr %0, i64 128
  %14 = load ptr, ptr %13, align 8
  %15 = ptrtoint ptr %14 to i64
  %16 = ptrtoint ptr %10 to i64
  %17 = add i64 %16, 4097
  %18 = sub i64 %17, %15
  %19 = tail call ptr @lexbor_realloc(ptr noundef %14, i64 noundef %18) #5
  store ptr %19, ptr %13, align 8
  %20 = icmp eq ptr %19, null
  br i1 %20, label %lxb_html_tokenizer_temp_append.exit, label %lxb_html_tokenizer_temp_realloc.exit.thread.i

lxb_html_tokenizer_temp_realloc.exit.thread.i:    ; preds = %12
  %21 = ptrtoint ptr %7 to i64
  %22 = sub i64 %21, %15
  %23 = getelementptr inbounds i8, ptr %19, i64 %22
  store ptr %23, ptr %6, align 8
  %24 = getelementptr inbounds i8, ptr %19, i64 %18
  store ptr %24, ptr %9, align 8
  %.pre = load i8, ptr %1, align 1
  br label %26

lxb_html_tokenizer_temp_append.exit:              ; preds = %12
  %25 = getelementptr inbounds i8, ptr %0, i64 232
  store i32 2, ptr %25, align 8
  br label %85

26:                                               ; preds = %5, %lxb_html_tokenizer_temp_realloc.exit.thread.i
  %27 = phi i8 [ %.pre, %lxb_html_tokenizer_temp_realloc.exit.thread.i ], [ 93, %5 ]
  %28 = phi ptr [ %23, %lxb_html_tokenizer_temp_realloc.exit.thread.i ], [ %7, %5 ]
  store i8 %27, ptr %28, align 1
  %29 = getelementptr inbounds i8, ptr %28, i64 1
  store ptr %29, ptr %6, align 8
  %30 = getelementptr inbounds i8, ptr %1, i64 1
  br label %85

31:                                               ; preds = %3
  store ptr @lxb_html_tokenizer_state_data_before, ptr %0, align 8
  %32 = getelementptr inbounds i8, ptr %0, i64 128
  %33 = load ptr, ptr %32, align 8
  %34 = getelementptr inbounds i8, ptr %0, i64 64
  %35 = load ptr, ptr %34, align 8
  %36 = getelementptr inbounds i8, ptr %35, i64 32
  store ptr %33, ptr %36, align 8
  %37 = getelementptr inbounds i8, ptr %0, i64 136
  %38 = load ptr, ptr %37, align 8
  %39 = load ptr, ptr %34, align 8
  %40 = getelementptr inbounds i8, ptr %39, i64 40
  store ptr %38, ptr %40, align 8
  %41 = load ptr, ptr %34, align 8
  %42 = load ptr, ptr %41, align 8
  %43 = getelementptr inbounds i8, ptr %41, i64 8
  %44 = load ptr, ptr %43, align 8
  %.not32 = icmp eq ptr %42, %44
  br i1 %.not32, label %57, label %45

45:                                               ; preds = %31
  %46 = getelementptr inbounds i8, ptr %0, i64 16
  %47 = load ptr, ptr %46, align 8
  %48 = getelementptr inbounds i8, ptr %0, i64 24
  %49 = load ptr, ptr %48, align 8
  %50 = tail call ptr %47(ptr noundef nonnull %0, ptr noundef nonnull %41, ptr noundef %49) #5
  store ptr %50, ptr %34, align 8
  %51 = icmp eq ptr %50, null
  br i1 %51, label %52, label %57

52:                                               ; preds = %45
  %53 = getelementptr inbounds i8, ptr %0, i64 232
  %54 = load i32, ptr %53, align 8
  %55 = icmp eq i32 %54, 0
  br i1 %55, label %56, label %85

56:                                               ; preds = %52
  store i32 1, ptr %53, align 8
  br label %85

57:                                               ; preds = %45, %31
  %58 = phi ptr [ %50, %45 ], [ %41, %31 ]
  tail call void @llvm.memset.p0.i64(ptr noundef nonnull align 8 dereferenceable(96) %58, i8 0, i64 96, i1 false)
  %59 = load ptr, ptr %32, align 8
  store ptr %59, ptr %37, align 8
  %60 = getelementptr inbounds i8, ptr %1, i64 1
  br label %85

61:                                               ; preds = %3
  %62 = getelementptr inbounds i8, ptr %0, i64 136
  %63 = load ptr, ptr %62, align 8
  %64 = getelementptr inbounds i8, ptr %63, i64 2
  %65 = getelementptr inbounds i8, ptr %0, i64 144
  %66 = load ptr, ptr %65, align 8
  %67 = icmp ugt ptr %64, %66
  br i1 %67, label %68, label %82

68:                                               ; preds = %61
  %69 = getelementptr inbounds i8, ptr %0, i64 128
  %70 = load ptr, ptr %69, align 8
  %71 = ptrtoint ptr %70 to i64
  %72 = ptrtoint ptr %66 to i64
  %73 = add i64 %72, 4098
  %74 = sub i64 %73, %71
  %75 = tail call ptr @lexbor_realloc(ptr noundef %70, i64 noundef %74) #5
  store ptr %75, ptr %69, align 8
  %76 = icmp eq ptr %75, null
  br i1 %76, label %lxb_html_tokenizer_temp_append.exit36, label %lxb_html_tokenizer_temp_realloc.exit.thread.i35

lxb_html_tokenizer_temp_realloc.exit.thread.i35:  ; preds = %68
  %77 = ptrtoint ptr %63 to i64
  %78 = sub i64 %77, %71
  %79 = getelementptr inbounds i8, ptr %75, i64 %78
  %80 = getelementptr inbounds i8, ptr %75, i64 %74
  store ptr %80, ptr %65, align 8
  br label %82

lxb_html_tokenizer_temp_append.exit36:            ; preds = %68
  %81 = getelementptr inbounds i8, ptr %0, i64 232
  store i32 2, ptr %81, align 8
  br label %85

82:                                               ; preds = %61, %lxb_html_tokenizer_temp_realloc.exit.thread.i35
  %83 = phi ptr [ %79, %lxb_html_tokenizer_temp_realloc.exit.thread.i35 ], [ %63, %61 ]
  store i16 23901, ptr %83, align 1
  %84 = getelementptr inbounds i8, ptr %83, i64 2
  store ptr %84, ptr %62, align 8
  store ptr @lxb_html_tokenizer_state_cdata_section, ptr %0, align 8
  br label %85

85:                                               ; preds = %lxb_html_tokenizer_temp_append.exit36, %26, %lxb_html_tokenizer_temp_append.exit, %52, %56, %82, %57
  %.0 = phi ptr [ %60, %57 ], [ %1, %82 ], [ %2, %56 ], [ %2, %52 ], [ %2, %lxb_html_tokenizer_temp_append.exit36 ], [ %30, %26 ], [ %2, %lxb_html_tokenizer_temp_append.exit ]
  ret ptr %.0
}